target datalayout = "e-m:e-p270:32:32-p271:32:32-p272:64:64-i64:64-i128:128-f80:128-n8:16:32:64-S128"
target triple = "x86_64-unknown-linux-gnu"

%"struct.facebook::velox::ByteRange" = type { ptr, i32, i32 }
%"class.std::vector" = type { %"struct.std::_Vector_base" }
%"struct.std::_Vector_base" = type { %"struct.std::_Vector_base<facebook::velox::ByteRange, std::allocator<facebook::velox::ByteRange>>::_Vector_impl" }
%"struct.std::_Vector_base<facebook::velox::ByteRange, std::allocator<facebook::velox::ByteRange>>::_Vector_impl" = type { %"struct.std::_Vector_base<facebook::velox::ByteRange, std::allocator<facebook::velox::ByteRange>>::_Vector_impl_data" }
%"struct.std::_Vector_base<facebook::velox::ByteRange, std::allocator<facebook::velox::ByteRange>>::_Vector_impl_data" = type { ptr, ptr, ptr }
%"class.facebook::velox::ByteOutputStream" = type <{ ptr, i8, i8, i8, [5 x i8], %"class.std::vector", i64, ptr, i32, [4 x i8] }>
%class.anon = type <{ ptr, i8, [7 x i8] }>
%class.anon.36 = type <{ ptr, i8, [7 x i8] }>

@_ZN8facebook5velox4bitsL13kZeroBitmasksE = internal constant [8 x i8] c"\FE\FD\FB\F7\EF\DF\BF\7F", align 1

; Function Attrs: mustprogress nounwind uwtable
define linkonce_odr noundef i32 @_ZN8facebook5velox4bits7roundUpIiiEET_S3_T0_(i32 noundef %value, i32 noundef %factor) #3 comdat {
entry:
  %value.addr = alloca i32, align 4
  %factor.addr = alloca i32, align 4
  store i32 %value, ptr %value.addr, align 4
  store i32 %factor, ptr %factor.addr, align 4
  %0 = load i32, ptr %value.addr, align 4
  %1 = load i32, ptr %factor.addr, align 4
  %sub = sub nsw i32 %1, 1
  %add = add nsw i32 %0, %sub
  %2 = load i32, ptr %factor.addr, align 4
  %div = sdiv i32 %add, %2
  %3 = load i32, ptr %factor.addr, align 4
  %mul = mul nsw i32 %div, %3
  ret i32 %mul
}

; Function Attrs: mustprogress nounwind uwtable
define linkonce_odr void @_ZN8facebook5velox4bits8clearBitImEEvPT_j(ptr noundef %bits, i32 noundef %idx) #3 comdat {
entry:
  %bits.addr = alloca ptr, align 8
  %idx.addr = alloca i32, align 4
  %bitsAs8Bit = alloca ptr, align 8
  store ptr %bits, ptr %bits.addr, align 8
  store i32 %idx, ptr %idx.addr, align 4
  %0 = load ptr, ptr %bits.addr, align 8
  store ptr %0, ptr %bitsAs8Bit, align 8
  %1 = load i32, ptr %idx.addr, align 4
  %rem = urem i32 %1, 8
  %idxprom = zext i32 %rem to i64
  %arrayidx = getelementptr inbounds [8 x i8], ptr @_ZN8facebook5velox4bitsL13kZeroBitmasksE, i64 0, i64 %idxprom
  %2 = load i8, ptr %arrayidx, align 1
  %conv = zext i8 %2 to i32
  %3 = load ptr, ptr %bitsAs8Bit, align 8
  %4 = load i32, ptr %idx.addr, align 4
  %div = udiv i32 %4, 8
  %idxprom1 = zext i32 %div to i64
  %arrayidx2 = getelementptr inbounds i8, ptr %3, i64 %idxprom1
  %5 = load i8, ptr %arrayidx2, align 1
  %conv3 = zext i8 %5 to i32
  %and = and i32 %conv3, %conv
  %conv4 = trunc i32 %and to i8
  store i8 %conv4, ptr %arrayidx2, align 1
  ret void
}

; Function Attrs: mustprogress nounwind uwtable
define linkonce_odr void @_ZN8facebook5velox4bits6setBitImEEvPT_j(ptr noundef %bits, i32 noundef %idx) #3 comdat {
entry:
  %bits.addr = alloca ptr, align 8
  %idx.addr = alloca i32, align 4
  %bitsAs8Bit = alloca ptr, align 8
  store ptr %bits, ptr %bits.addr, align 8
  store i32 %idx, ptr %idx.addr, align 4
  %0 = load ptr, ptr %bits.addr, align 8
  store ptr %0, ptr %bitsAs8Bit, align 8
  %1 = load i32, ptr %idx.addr, align 4
  %rem = urem i32 %1, 8
  %shl = shl i32 1, %rem
  %2 = load ptr, ptr %bitsAs8Bit, align 8
  %3 = load i32, ptr %idx.addr, align 4
  %div = udiv i32 %3, 8
  %idxprom = zext i32 %div to i64
  %arrayidx = getelementptr inbounds i8, ptr %2, i64 %idxprom
  %4 = load i8, ptr %arrayidx, align 1
  %conv = zext i8 %4 to i32
  %or = or i32 %conv, %shl
  %conv1 = trunc i32 %or to i8
  store i8 %conv1, ptr %arrayidx, align 1
  ret void
}

; Function Attrs: mustprogress uwtable
define linkonce_odr noundef i64 @_ZN8facebook5velox4bits6nbytesEi(i32 noundef %bits) #0 comdat {
entry:
  %bits.addr = alloca i32, align 4
  store i32 %bits, ptr %bits.addr, align 4
  %0 = load i32, ptr %bits.addr, align 4
  %call = call noundef i32 @_ZN8facebook5velox4bits7roundUpIiiEET_S3_T0_(i32 noundef %0, i32 noundef 8)
  %div = sdiv i32 %call, 8
  %conv = sext i32 %div to i64
  ret i64 %conv
}

; Function Attrs: mustprogress uwtable
define linkonce_odr void @_ZN8facebook5velox4bits8fillBitsEPmiib(ptr noundef %bits, i32 noundef %begin, i32 noundef %end, i1 noundef zeroext %value) #0 comdat {
entry:
  %bits.addr = alloca ptr, align 8
  %begin.addr = alloca i32, align 4
  %end.addr = alloca i32, align 4
  %value.addr = alloca i8, align 1
  %agg.tmp = alloca %class.anon, align 8
  %agg.tmp2 = alloca %class.anon.36, align 8
  store ptr %bits, ptr %bits.addr, align 8
  store i32 %begin, ptr %begin.addr, align 4
  store i32 %end, ptr %end.addr, align 4
  %frombool = zext i1 %value to i8
  store i8 %frombool, ptr %value.addr, align 1
  %0 = load i32, ptr %begin.addr, align 4
  %1 = load i32, ptr %end.addr, align 4
  %2 = getelementptr inbounds %class.anon, ptr %agg.tmp, i32 0, i32 0
  %3 = load ptr, ptr %bits.addr, align 8
  store ptr %3, ptr %2, align 8
  %4 = getelementptr inbounds %class.anon, ptr %agg.tmp, i32 0, i32 1
  %5 = load i8, ptr %value.addr, align 1
  %tobool = trunc i8 %5 to i1
  %frombool1 = zext i1 %tobool to i8
  store i8 %frombool1, ptr %4, align 8
  %6 = getelementptr inbounds %class.anon.36, ptr %agg.tmp2, i32 0, i32 0
  %7 = load ptr, ptr %bits.addr, align 8
  store ptr %7, ptr %6, align 8
  %8 = getelementptr inbounds %class.anon.36, ptr %agg.tmp2, i32 0, i32 1
  %9 = load i8, ptr %value.addr, align 1
  %tobool3 = trunc i8 %9 to i1
  %frombool4 = zext i1 %tobool3 to i8
  store i8 %frombool4, ptr %8, align 8
  %10 = getelementptr inbounds { ptr, i8 }, ptr %agg.tmp, i32 0, i32 0
  %11 = load ptr, ptr %10, align 8
  %12 = getelementptr inbounds { ptr, i8 }, ptr %agg.tmp, i32 0, i32 1
  %13 = load i8, ptr %12, align 8
  %14 = getelementptr inbounds { ptr, i8 }, ptr %agg.tmp2, i32 0, i32 0
  %15 = load ptr, ptr %14, align 8
  %16 = getelementptr inbounds { ptr, i8 }, ptr %agg.tmp2, i32 0, i32 1
  %17 = load i8, ptr %16, align 8
  call void @_ZN8facebook5velox4bits11forEachWordIZNS1_8fillBitsEPmiibEUlimE_ZNS1_8fillBitsES3_iibEUliE_EEviiT_T0_(i32 noundef %0, i32 noundef %1, ptr %11, i8 %13, ptr %15, i8 %17)
  ret void
}

; Function Attrs: mustprogress nounwind uwtable
define linkonce_odr noundef nonnull align 4 dereferenceable(4) ptr @_ZSt3minIiERKT_S2_S2_(ptr noundef nonnull align 4 dereferenceable(4) %__a, ptr noundef nonnull align 4 dereferenceable(4) %__b) #3 comdat {
entry:
  %retval = alloca ptr, align 8
  %__a.addr = alloca ptr, align 8
  %__b.addr = alloca ptr, align 8
  store ptr %__a, ptr %__a.addr, align 8
  store ptr %__b, ptr %__b.addr, align 8
  %0 = load ptr, ptr %__b.addr, align 8
  %1 = load i32, ptr %0, align 4
  %2 = load ptr, ptr %__a.addr, align 8
  %3 = load i32, ptr %2, align 4
  %cmp = icmp slt i32 %1, %3
  br i1 %cmp, label %if.then, label %if.end

if.then:                                          ; preds = %entry
  %4 = load ptr, ptr %__b.addr, align 8
  store ptr %4, ptr %retval, align 8
  br label %return

if.end:                                           ; preds = %entry
  %5 = load ptr, ptr %__a.addr, align 8
  store ptr %5, ptr %retval, align 8
  br label %return

return:                                           ; preds = %if.end, %if.then
  %6 = load ptr, ptr %retval, align 8
  ret ptr %6
}

; Function Attrs: mustprogress uwtable
define linkonce_odr void @_ZN8facebook5velox4bits6setBitImEEvPT_jb(ptr noundef %bits, i32 noundef %idx, i1 noundef zeroext %value) #0 comdat {
entry:
  %bits.addr = alloca ptr, align 8
  %idx.addr = alloca i32, align 4
  %value.addr = alloca i8, align 1
  store ptr %bits, ptr %bits.addr, align 8
  store i32 %idx, ptr %idx.addr, align 4
  %frombool = zext i1 %value to i8
  store i8 %frombool, ptr %value.addr, align 1
  %0 = load i8, ptr %value.addr, align 1
  %tobool = trunc i8 %0 to i1
  br i1 %tobool, label %cond.true, label %cond.false

cond.true:                                        ; preds = %entry
  %1 = load ptr, ptr %bits.addr, align 8
  %2 = load i32, ptr %idx.addr, align 4
  call void @_ZN8facebook5velox4bits6setBitImEEvPT_j(ptr noundef %1, i32 noundef %2)
  br label %cond.end

cond.false:                                       ; preds = %entry
  %3 = load ptr, ptr %bits.addr, align 8
  %4 = load i32, ptr %idx.addr, align 4
  call void @_ZN8facebook5velox4bits8clearBitImEEvPT_j(ptr noundef %3, i32 noundef %4)
  br label %cond.end

cond.end:                                         ; preds = %cond.false, %cond.true
  ret void
}

; Function Attrs: mustprogress uwtable
define void @_ZN8facebook5velox16ByteOutputStream10appendBoolEbi(ptr noundef nonnull align 8 dereferenceable(60) %this, i1 noundef zeroext %value, i32 noundef %count) #0 align 2 {
entry:
  %this.addr = alloca ptr, align 8
  %value.addr = alloca i8, align 1
  %count.addr = alloca i32, align 4
  %offset = alloca i32, align 4
  %bitsFit = alloca i32, align 4
  %ref.tmp = alloca i32, align 4
  %ref.tmp9 = alloca i32, align 4
  store ptr %this, ptr %this.addr, align 8
  %frombool = zext i1 %value to i8
  store i8 %frombool, ptr %value.addr, align 1
  store i32 %count, ptr %count.addr, align 4
  %this1 = load ptr, ptr %this.addr, align 8
  %0 = load i32, ptr %count.addr, align 4
  %cmp = icmp eq i32 %0, 1
  br i1 %cmp, label %land.lhs.true, label %if.end

land.lhs.true:                                    ; preds = %entry
  %current_ = getelementptr inbounds %"class.facebook::velox::ByteOutputStream", ptr %this1, i32 0, i32 7
  %1 = load ptr, ptr %current_, align 8
  %size = getelementptr inbounds %"struct.facebook::velox::ByteRange", ptr %1, i32 0, i32 1
  %2 = load i32, ptr %size, align 8
  %current_2 = getelementptr inbounds %"class.facebook::velox::ByteOutputStream", ptr %this1, i32 0, i32 7
  %3 = load ptr, ptr %current_2, align 8
  %position = getelementptr inbounds %"struct.facebook::velox::ByteRange", ptr %3, i32 0, i32 2
  %4 = load i32, ptr %position, align 4
  %cmp3 = icmp sgt i32 %2, %4
  br i1 %cmp3, label %if.then, label %if.end

if.then:                                          ; preds = %land.lhs.true
  %current_4 = getelementptr inbounds %"class.facebook::velox::ByteOutputStream", ptr %this1, i32 0, i32 7
  %5 = load ptr, ptr %current_4, align 8
  %buffer = getelementptr inbounds %"struct.facebook::velox::ByteRange", ptr %5, i32 0, i32 0
  %6 = load ptr, ptr %buffer, align 8
  %current_5 = getelementptr inbounds %"class.facebook::velox::ByteOutputStream", ptr %this1, i32 0, i32 7
  %7 = load ptr, ptr %current_5, align 8
  %position6 = getelementptr inbounds %"struct.facebook::velox::ByteRange", ptr %7, i32 0, i32 2
  %8 = load i32, ptr %position6, align 4
  %9 = load i8, ptr %value.addr, align 1
  %tobool = trunc i8 %9 to i1
  call void @_ZN8facebook5velox4bits6setBitImEEvPT_jb(ptr noundef %6, i32 noundef %8, i1 noundef zeroext %tobool)
  %current_7 = getelementptr inbounds %"class.facebook::velox::ByteOutputStream", ptr %this1, i32 0, i32 7
  %10 = load ptr, ptr %current_7, align 8
  %position8 = getelementptr inbounds %"struct.facebook::velox::ByteRange", ptr %10, i32 0, i32 2
  %11 = load i32, ptr %position8, align 4
  %inc = add nsw i32 %11, 1
  store i32 %inc, ptr %position8, align 4
  br label %return

if.end:                                           ; preds = %land.lhs.true, %entry
  store i32 0, ptr %offset, align 4
  br label %for.cond

for.cond:                                         ; preds = %if.end28, %if.end
  %12 = load i32, ptr %count.addr, align 4
  %13 = load i32, ptr %offset, align 4
  %sub = sub nsw i32 %12, %13
  store i32 %sub, ptr %ref.tmp, align 4
  %current_10 = getelementptr inbounds %"class.facebook::velox::ByteOutputStream", ptr %this1, i32 0, i32 7
  %14 = load ptr, ptr %current_10, align 8
  %size11 = getelementptr inbounds %"struct.facebook::velox::ByteRange", ptr %14, i32 0, i32 1
  %15 = load i32, ptr %size11, align 8
  %current_12 = getelementptr inbounds %"class.facebook::velox::ByteOutputStream", ptr %this1, i32 0, i32 7
  %16 = load ptr, ptr %current_12, align 8
  %position13 = getelementptr inbounds %"struct.facebook::velox::ByteRange", ptr %16, i32 0, i32 2
  %17 = load i32, ptr %position13, align 4
  %sub14 = sub nsw i32 %15, %17
  store i32 %sub14, ptr %ref.tmp9, align 4
  %call = call noundef nonnull align 4 dereferenceable(4) ptr @_ZSt3minIiERKT_S2_S2_(ptr noundef nonnull align 4 dereferenceable(4) %ref.tmp, ptr noundef nonnull align 4 dereferenceable(4) %ref.tmp9)
  %18 = load i32, ptr %call, align 4
  store i32 %18, ptr %bitsFit, align 4
  %current_15 = getelementptr inbounds %"class.facebook::velox::ByteOutputStream", ptr %this1, i32 0, i32 7
  %19 = load ptr, ptr %current_15, align 8
  %buffer16 = getelementptr inbounds %"struct.facebook::velox::ByteRange", ptr %19, i32 0, i32 0
  %20 = load ptr, ptr %buffer16, align 8
  %current_17 = getelementptr inbounds %"class.facebook::velox::ByteOutputStream", ptr %this1, i32 0, i32 7
  %21 = load ptr, ptr %current_17, align 8
  %position18 = getelementptr inbounds %"struct.facebook::velox::ByteRange", ptr %21, i32 0, i32 2
  %22 = load i32, ptr %position18, align 4
  %current_19 = getelementptr inbounds %"class.facebook::velox::ByteOutputStream", ptr %this1, i32 0, i32 7
  %23 = load ptr, ptr %current_19, align 8
  %position20 = getelementptr inbounds %"struct.facebook::velox::ByteRange", ptr %23, i32 0, i32 2
  %24 = load i32, ptr %position20, align 4
  %25 = load i32, ptr %bitsFit, align 4
  %add = add nsw i32 %24, %25
  %26 = load i8, ptr %value.addr, align 1
  %tobool21 = trunc i8 %26 to i1
  call void @_ZN8facebook5velox4bits8fillBitsEPmiib(ptr noundef %20, i32 noundef %22, i32 noundef %add, i1 noundef zeroext %tobool21)
  %27 = load i32, ptr %bitsFit, align 4
  %current_22 = getelementptr inbounds %"class.facebook::velox::ByteOutputStream", ptr %this1, i32 0, i32 7
  %28 = load ptr, ptr %current_22, align 8
  %position23 = getelementptr inbounds %"struct.facebook::velox::ByteRange", ptr %28, i32 0, i32 2
  %29 = load i32, ptr %position23, align 4
  %add24 = add nsw i32 %29, %27
  store i32 %add24, ptr %position23, align 4
  %30 = load i32, ptr %bitsFit, align 4
  %31 = load i32, ptr %offset, align 4
  %add25 = add nsw i32 %31, %30
  store i32 %add25, ptr %offset, align 4
  %32 = load i32, ptr %offset, align 4
  %33 = load i32, ptr %count.addr, align 4
  %cmp26 = icmp eq i32 %32, %33
  br i1 %cmp26, label %if.then27, label %if.end28

if.then27:                                        ; preds = %for.cond
  br label %return

if.end28:                                         ; preds = %for.cond
  %34 = load i32, ptr %count.addr, align 4
  %35 = load i32, ptr %offset, align 4
  %sub29 = sub nsw i32 %34, %35
  %call30 = call noundef i64 @_ZN8facebook5velox4bits6nbytesEi(i32 noundef %sub29)
  %conv = trunc i64 %call30 to i32
  call void @_ZN8facebook5velox16ByteOutputStream6extendEi(ptr noundef nonnull align 8 dereferenceable(60) %this1, i32 noundef %conv)
  br label %for.cond, !llvm.loop !14

return:                                           ; preds = %if.then27, %if.then
  ret void
}