; Function Attrs: mustprogress uwtable
define void @_ZN8facebook5velox16ByteOutputStream10appendBoolEbi(ptr nocapture noundef nonnull align 8 dereferenceable(60) %this, i1 noundef zeroext %value, i32 noundef %count) local_unnamed_addr #0 align 2 {
entry:
  %cmp = icmp eq i32 %count, 1
  br i1 %cmp, label %land.lhs.true, label %if.end

land.lhs.true:                                    ; preds = %entry
  %current_ = getelementptr inbounds i8, ptr %this, i64 48
  %0 = load ptr, ptr %current_, align 8
  %size = getelementptr inbounds i8, ptr %0, i64 8
  %1 = load i32, ptr %size, align 8
  %position = getelementptr inbounds i8, ptr %0, i64 12
  %2 = load i32, ptr %position, align 4
  %cmp3 = icmp sgt i32 %1, %2
  br i1 %cmp3, label %if.then, label %if.end

if.then:                                          ; preds = %land.lhs.true
  %3 = load ptr, ptr %0, align 8
  %rem.i.i = and i32 %2, 7
  br i1 %value, label %cond.true.i, label %cond.false.i

cond.true.i:                                      ; preds = %if.then
  %shl.i.i = shl nuw nsw i32 1, %rem.i.i
  %div2.i.i = lshr i32 %2, 3
  %idxprom.i.i = zext nneg i32 %div2.i.i to i64
  %arrayidx.i.i = getelementptr inbounds i8, ptr %3, i64 %idxprom.i.i
  %4 = load i8, ptr %arrayidx.i.i, align 1
  %5 = trunc i32 %shl.i.i to i8
  %conv1.i.i = or i8 %4, %5
  store i8 %conv1.i.i, ptr %arrayidx.i.i, align 1
  br label %_ZN8facebook5velox4bits6setBitImEEvPT_jb.exit

cond.false.i:                                     ; preds = %if.then
  %idxprom.i4.i = zext nneg i32 %rem.i.i to i64
  %arrayidx.i5.i = getelementptr inbounds [8 x i8], ptr @_ZN8facebook5velox4bitsL13kZeroBitmasksE, i64 0, i64 %idxprom.i4.i
  %6 = load i8, ptr %arrayidx.i5.i, align 1
  %div2.i6.i = lshr i32 %2, 3
  %idxprom1.i.i = zext nneg i32 %div2.i6.i to i64
  %arrayidx2.i.i = getelementptr inbounds i8, ptr %3, i64 %idxprom1.i.i
  %7 = load i8, ptr %arrayidx2.i.i, align 1
  %and3.i.i = and i8 %7, %6
  store i8 %and3.i.i, ptr %arrayidx2.i.i, align 1
  br label %_ZN8facebook5velox4bits6setBitImEEvPT_jb.exit

_ZN8facebook5velox4bits6setBitImEEvPT_jb.exit:    ; preds = %cond.true.i, %cond.false.i
  %8 = load ptr, ptr %current_, align 8
  %position8 = getelementptr inbounds i8, ptr %8, i64 12
  %9 = load i32, ptr %position8, align 4
  %inc = add nsw i32 %9, 1
  store i32 %inc, ptr %position8, align 4
  br label %return

if.end:                                           ; preds = %land.lhs.true, %entry
  %current_10 = getelementptr inbounds i8, ptr %this, i64 48
  %frombool.i = zext i1 %value to i8
  %sub29 = add i32 %count, 7
  br label %for.cond

for.cond:                                         ; preds = %if.end28, %if.end
  %offset.0 = phi i32 [ 0, %if.end ], [ %add25, %if.end28 ]
  %sub = sub nsw i32 %count, %offset.0
  %10 = load ptr, ptr %current_10, align 8
  %size11 = getelementptr inbounds i8, ptr %10, i64 8
  %11 = load i32, ptr %size11, align 8
  %position13 = getelementptr inbounds i8, ptr %10, i64 12
  %12 = load i32, ptr %position13, align 4
  %sub14 = sub nsw i32 %11, %12
  %.sroa.speculated = tail call i32 @llvm.smin.i32(i32 %sub14, i32 %sub)
  %13 = load ptr, ptr %10, align 8
  %add = add nsw i32 %.sroa.speculated, %12
  tail call void @_ZN8facebook5velox4bits11forEachWordIZNS1_8fillBitsEPmiibEUlimE_ZNS1_8fillBitsES3_iibEUliE_EEviiT_T0_(i32 noundef %12, i32 noundef %add, ptr %13, i8 %frombool.i, ptr %13, i8 %frombool.i)
  %14 = load ptr, ptr %current_10, align 8
  %position23 = getelementptr inbounds i8, ptr %14, i64 12
  %15 = load i32, ptr %position23, align 4
  %add24 = add nsw i32 %15, %.sroa.speculated
  store i32 %add24, ptr %position23, align 4
  %add25 = add nsw i32 %.sroa.speculated, %offset.0
  %cmp26 = icmp eq i32 %add25, %count
  br i1 %cmp26, label %return, label %if.end28

if.end28:                                         ; preds = %for.cond
  %add.i.i = sub i32 %sub29, %add25
  %div.i = sdiv i32 %add.i.i, 8
  tail call void @_ZN8facebook5velox16ByteOutputStream6extendEi(ptr noundef nonnull align 8 dereferenceable(60) %this, i32 noundef %div.i)
  br label %for.cond, !llvm.loop !14

return:                                           ; preds = %for.cond, %_ZN8facebook5velox4bits6setBitImEEvPT_jb.exit
  ret void
}